target datalayout = "e-m:e-p270:32:32-p271:32:32-p272:64:64-i64:64-i128:128-f80:128-n8:16:32:64-S128"
target triple = "x86_64-pc-linux-gnu"

%struct.xcgroup_t = type { ptr, ptr, ptr, i32, i32, i32 }
%struct.task_cg_info_t = type { %struct.xcgroup_t, i32 }
%struct.cgroup_limits_t = type { ptr, i32, ptr, ptr, i64, i64, i8, %struct.gres_device_id_t, i64, i64, i64, i64 }
%struct.gres_device_id_t = type { i32, i32, i32 }

@g_cg_name = dso_local global [5 x ptr] [ptr @.str, ptr @.str.1, ptr @.str.2, ptr @.str.3, ptr @.str.4], align 16
@g_task_list = dso_local global [5 x ptr] zeroinitializer, align 16
@int_cg = internal global [5 x [9 x %struct.xcgroup_t]] zeroinitializer, align 16
@.str.9 = private unnamed_addr constant [34 x i8] c"cgroup subsystem %u not supported\00", align 1
@.str.25 = private unnamed_addr constant [12 x i8] c"cpuset.cpus\00", align 1
@.str.26 = private unnamed_addr constant [12 x i8] c"cpuset.mems\00", align 1
@.str.27 = private unnamed_addr constant [18 x i8] c"memory.swappiness\00", align 1
@.str.28 = private unnamed_addr constant [22 x i8] c"memory.limit_in_bytes\00", align 1
@.str.29 = private unnamed_addr constant [27 x i8] c"memory.soft_limit_in_bytes\00", align 1
@.str.30 = private unnamed_addr constant [28 x i8] c"memory.memsw.limit_in_bytes\00", align 1
@.str.31 = private unnamed_addr constant [14 x i8] c"devices.allow\00", align 1
@.str.32 = private unnamed_addr constant [13 x i8] c"devices.deny\00", align 1
@.str.33 = private unnamed_addr constant [69 x i8] c"Task %d is not being tracked in %s controller, cannot set constrain.\00", align 1

; Function Attrs: nounwind uwtable
define dso_local i32 @cgroup_p_constrain_set(i32 noundef %0, i32 noundef %1, ptr noundef %2) #0 {
  %4 = alloca i32, align 4
  %5 = alloca i32, align 4
  %6 = alloca i32, align 4
  %7 = alloca ptr, align 8
  %8 = alloca i32, align 4
  %9 = alloca ptr, align 8
  %10 = alloca ptr, align 8
  %11 = alloca i32, align 4
  store i32 %0, ptr %5, align 4
  store i32 %1, ptr %6, align 4
  store ptr %2, ptr %7, align 8
  call void @llvm.lifetime.start.p0(i64 4, ptr %8) #7
  store i32 0, ptr %8, align 4
  call void @llvm.lifetime.start.p0(i64 8, ptr %9) #7
  call void @llvm.lifetime.start.p0(i64 8, ptr %10) #7
  store ptr null, ptr %10, align 8
  %12 = load ptr, ptr %7, align 8
  %13 = icmp ne ptr %12, null
  br i1 %13, label %15, label %14

14:                                               ; preds = %3
  store i32 -1, ptr %4, align 4
  store i32 1, ptr %11, align 4
  br label %232

15:                                               ; preds = %3
  %16 = load i32, ptr %5, align 4
  switch i32 %16, label %227 [
    i32 0, label %230
    i32 1, label %17
    i32 2, label %67
    i32 3, label %149
  ]

17:                                               ; preds = %15
  %18 = load i32, ptr %6, align 4
  %19 = icmp eq i32 %18, 8
  br i1 %19, label %29, label %20

20:                                               ; preds = %17
  %21 = load i32, ptr %6, align 4
  %22 = icmp eq i32 %21, 2
  br i1 %22, label %29, label %23

23:                                               ; preds = %20
  %24 = load i32, ptr %6, align 4
  %25 = icmp eq i32 %24, 3
  br i1 %25, label %29, label %26

26:                                               ; preds = %23
  %27 = load i32, ptr %6, align 4
  %28 = icmp eq i32 %27, 4
  br i1 %28, label %29, label %43

29:                                               ; preds = %26, %23, %20, %17
  %30 = load i32, ptr %5, align 4
  %31 = zext i32 %30 to i64
  %32 = getelementptr inbounds nuw [5 x [9 x %struct.xcgroup_t]], ptr @int_cg, i64 0, i64 %31
  %33 = load i32, ptr %6, align 4
  %34 = zext i32 %33 to i64
  %35 = getelementptr inbounds nuw [9 x %struct.xcgroup_t], ptr %32, i64 0, i64 %34
  %36 = load ptr, ptr %7, align 8
  %37 = getelementptr inbounds nuw %struct.cgroup_limits_t, ptr %36, i32 0, i32 2
  %38 = load ptr, ptr %37, align 8
  %39 = call i32 @common_cgroup_set_param(ptr noundef %35, ptr noundef @.str.25, ptr noundef %38)
  %40 = icmp ne i32 %39, 0
  br i1 %40, label %41, label %42

41:                                               ; preds = %29
  store i32 -1, ptr %8, align 4
  br label %42

42:                                               ; preds = %41, %29
  br label %43

43:                                               ; preds = %42, %26
  %44 = load i32, ptr %6, align 4
  %45 = icmp eq i32 %44, 2
  br i1 %45, label %52, label %46

46:                                               ; preds = %43
  %47 = load i32, ptr %6, align 4
  %48 = icmp eq i32 %47, 3
  br i1 %48, label %52, label %49

49:                                               ; preds = %46
  %50 = load i32, ptr %6, align 4
  %51 = icmp eq i32 %50, 4
  br i1 %51, label %52, label %66

52:                                               ; preds = %49, %46, %43
  %53 = load i32, ptr %5, align 4
  %54 = zext i32 %53 to i64
  %55 = getelementptr inbounds nuw [5 x [9 x %struct.xcgroup_t]], ptr @int_cg, i64 0, i64 %54
  %56 = load i32, ptr %6, align 4
  %57 = zext i32 %56 to i64
  %58 = getelementptr inbounds nuw [9 x %struct.xcgroup_t], ptr %55, i64 0, i64 %57
  %59 = load ptr, ptr %7, align 8
  %60 = getelementptr inbounds nuw %struct.cgroup_limits_t, ptr %59, i32 0, i32 3
  %61 = load ptr, ptr %60, align 8
  %62 = call i32 @common_cgroup_set_param(ptr noundef %58, ptr noundef @.str.26, ptr noundef %61)
  %63 = icmp ne i32 %62, 0
  br i1 %63, label %64, label %65

64:                                               ; preds = %52
  store i32 -1, ptr %8, align 4
  br label %65

65:                                               ; preds = %64, %52
  br label %66

66:                                               ; preds = %65, %49
  br label %230

67:                                               ; preds = %15
  %68 = load i32, ptr %6, align 4
  %69 = icmp eq i32 %68, 3
  br i1 %69, label %70, label %86

70:                                               ; preds = %67
  %71 = load ptr, ptr %7, align 8
  %72 = getelementptr inbounds nuw %struct.cgroup_limits_t, ptr %71, i32 0, i32 11
  %73 = load i64, ptr %72, align 8
  %74 = icmp ne i64 %73, -2
  br i1 %74, label %75, label %86

75:                                               ; preds = %70
  %76 = load i32, ptr %5, align 4
  %77 = zext i32 %76 to i64
  %78 = getelementptr inbounds nuw [5 x [9 x %struct.xcgroup_t]], ptr @int_cg, i64 0, i64 %77
  %79 = load i32, ptr %6, align 4
  %80 = zext i32 %79 to i64
  %81 = getelementptr inbounds nuw [9 x %struct.xcgroup_t], ptr %78, i64 0, i64 %80
  %82 = load ptr, ptr %7, align 8
  %83 = getelementptr inbounds nuw %struct.cgroup_limits_t, ptr %82, i32 0, i32 11
  %84 = load i64, ptr %83, align 8
  %85 = call i32 @common_cgroup_set_uint64_param(ptr noundef %81, ptr noundef @.str.27, i64 noundef %84)
  store i32 %85, ptr %8, align 4
  br label %86

86:                                               ; preds = %75, %70, %67
  %87 = load i32, ptr %6, align 4
  %88 = icmp eq i32 %87, 3
  br i1 %88, label %95, label %89

89:                                               ; preds = %86
  %90 = load i32, ptr %6, align 4
  %91 = icmp eq i32 %90, 4
  br i1 %91, label %95, label %92

92:                                               ; preds = %89
  %93 = load i32, ptr %6, align 4
  %94 = icmp eq i32 %93, 8
  br i1 %94, label %95, label %109

95:                                               ; preds = %92, %89, %86
  %96 = load i32, ptr %5, align 4
  %97 = zext i32 %96 to i64
  %98 = getelementptr inbounds nuw [5 x [9 x %struct.xcgroup_t]], ptr @int_cg, i64 0, i64 %97
  %99 = load i32, ptr %6, align 4
  %100 = zext i32 %99 to i64
  %101 = getelementptr inbounds nuw [9 x %struct.xcgroup_t], ptr %98, i64 0, i64 %100
  %102 = load ptr, ptr %7, align 8
  %103 = getelementptr inbounds nuw %struct.cgroup_limits_t, ptr %102, i32 0, i32 8
  %104 = load i64, ptr %103, align 8
  %105 = call i32 @common_cgroup_set_uint64_param(ptr noundef %101, ptr noundef @.str.28, i64 noundef %104)
  %106 = icmp ne i32 %105, 0
  br i1 %106, label %107, label %108

107:                                              ; preds = %95
  store i32 -1, ptr %8, align 4
  br label %108

108:                                              ; preds = %107, %95
  br label %109

109:                                              ; preds = %108, %92
  %110 = load i32, ptr %6, align 4
  %111 = icmp eq i32 %110, 3
  br i1 %111, label %115, label %112

112:                                              ; preds = %109
  %113 = load i32, ptr %6, align 4
  %114 = icmp eq i32 %113, 4
  br i1 %114, label %115, label %148

115:                                              ; preds = %112, %109
  %116 = load i32, ptr %5, align 4
  %117 = zext i32 %116 to i64
  %118 = getelementptr inbounds nuw [5 x [9 x %struct.xcgroup_t]], ptr @int_cg, i64 0, i64 %117
  %119 = load i32, ptr %6, align 4
  %120 = zext i32 %119 to i64
  %121 = getelementptr inbounds nuw [9 x %struct.xcgroup_t], ptr %118, i64 0, i64 %120
  %122 = load ptr, ptr %7, align 8
  %123 = getelementptr inbounds nuw %struct.cgroup_limits_t, ptr %122, i32 0, i32 9
  %124 = load i64, ptr %123, align 8
  %125 = call i32 @common_cgroup_set_uint64_param(ptr noundef %121, ptr noundef @.str.29, i64 noundef %124)
  %126 = icmp ne i32 %125, 0
  br i1 %126, label %127, label %128

127:                                              ; preds = %115
  store i32 -1, ptr %8, align 4
  br label %128

128:                                              ; preds = %127, %115
  %129 = load ptr, ptr %7, align 8
  %130 = getelementptr inbounds nuw %struct.cgroup_limits_t, ptr %129, i32 0, i32 10
  %131 = load i64, ptr %130, align 8
  %132 = icmp ne i64 %131, -2
  br i1 %132, label %133, label %147

133:                                              ; preds = %128
  %134 = load i32, ptr %5, align 4
  %135 = zext i32 %134 to i64
  %136 = getelementptr inbounds nuw [5 x [9 x %struct.xcgroup_t]], ptr @int_cg, i64 0, i64 %135
  %137 = load i32, ptr %6, align 4
  %138 = zext i32 %137 to i64
  %139 = getelementptr inbounds nuw [9 x %struct.xcgroup_t], ptr %136, i64 0, i64 %138
  %140 = load ptr, ptr %7, align 8
  %141 = getelementptr inbounds nuw %struct.cgroup_limits_t, ptr %140, i32 0, i32 10
  %142 = load i64, ptr %141, align 8
  %143 = call i32 @common_cgroup_set_uint64_param(ptr noundef %139, ptr noundef @.str.30, i64 noundef %142)
  %144 = icmp ne i32 %143, 0
  br i1 %144, label %145, label %146

145:                                              ; preds = %133
  store i32 -1, ptr %8, align 4
  br label %146

146:                                              ; preds = %145, %133
  br label %147

147:                                              ; preds = %146, %128
  br label %148

148:                                              ; preds = %147, %112
  br label %230

149:                                              ; preds = %15
  %150 = load ptr, ptr %7, align 8
  %151 = getelementptr inbounds nuw %struct.cgroup_limits_t, ptr %150, i32 0, i32 7
  %152 = call ptr @gres_device_id2str(ptr noundef %151)
  store ptr %152, ptr %10, align 8
  %153 = load i32, ptr %6, align 4
  %154 = icmp eq i32 %153, 4
  br i1 %154, label %158, label %155

155:                                              ; preds = %149
  %156 = load i32, ptr %6, align 4
  %157 = icmp eq i32 %156, 3
  br i1 %157, label %158, label %188

158:                                              ; preds = %155, %149
  %159 = load ptr, ptr %7, align 8
  %160 = getelementptr inbounds nuw %struct.cgroup_limits_t, ptr %159, i32 0, i32 6
  %161 = load i8, ptr %160, align 8, !range !12, !noundef !13
  %162 = trunc i8 %161 to i1
  br i1 %162, label %163, label %175

163:                                              ; preds = %158
  %164 = load i32, ptr %5, align 4
  %165 = zext i32 %164 to i64
  %166 = getelementptr inbounds nuw [5 x [9 x %struct.xcgroup_t]], ptr @int_cg, i64 0, i64 %165
  %167 = load i32, ptr %6, align 4
  %168 = zext i32 %167 to i64
  %169 = getelementptr inbounds nuw [9 x %struct.xcgroup_t], ptr %166, i64 0, i64 %168
  %170 = load ptr, ptr %10, align 8
  %171 = call i32 @common_cgroup_set_param(ptr noundef %169, ptr noundef @.str.31, ptr noundef %170)
  %172 = icmp ne i32 %171, 0
  br i1 %172, label %173, label %174

173:                                              ; preds = %163
  store i32 -1, ptr %8, align 4
  br label %174

174:                                              ; preds = %173, %163
  br label %187

175:                                              ; preds = %158
  %176 = load i32, ptr %5, align 4
  %177 = zext i32 %176 to i64
  %178 = getelementptr inbounds nuw [5 x [9 x %struct.xcgroup_t]], ptr @int_cg, i64 0, i64 %177
  %179 = load i32, ptr %6, align 4
  %180 = zext i32 %179 to i64
  %181 = getelementptr inbounds nuw [9 x %struct.xcgroup_t], ptr %178, i64 0, i64 %180
  %182 = load ptr, ptr %10, align 8
  %183 = call i32 @common_cgroup_set_param(ptr noundef %181, ptr noundef @.str.32, ptr noundef %182)
  %184 = icmp ne i32 %183, 0
  br i1 %184, label %185, label %186

185:                                              ; preds = %175
  store i32 -1, ptr %8, align 4
  br label %186

186:                                              ; preds = %185, %175
  br label %187

187:                                              ; preds = %186, %174
  br label %188

188:                                              ; preds = %187, %155
  %189 = load i32, ptr %6, align 4
  %190 = icmp eq i32 %189, 7
  br i1 %190, label %191, label %226

191:                                              ; preds = %188
  %192 = load i32, ptr %5, align 4
  %193 = zext i32 %192 to i64
  %194 = getelementptr inbounds nuw [5 x ptr], ptr @g_task_list, i64 0, i64 %193
  %195 = load ptr, ptr %194, align 8
  %196 = load ptr, ptr %7, align 8
  %197 = getelementptr inbounds nuw %struct.cgroup_limits_t, ptr %196, i32 0, i32 1
  %198 = call ptr @list_find_first(ptr noundef %195, ptr noundef @_find_task_cg_info, ptr noundef %197)
  store ptr %198, ptr %9, align 8
  %199 = load ptr, ptr %9, align 8
  %200 = icmp ne ptr %199, null
  br i1 %200, label %210, label %201

201:                                              ; preds = %191
  %202 = load ptr, ptr %7, align 8
  %203 = getelementptr inbounds nuw %struct.cgroup_limits_t, ptr %202, i32 0, i32 1
  %204 = load i32, ptr %203, align 8
  %205 = load i32, ptr %5, align 4
  %206 = zext i32 %205 to i64
  %207 = getelementptr inbounds nuw [5 x ptr], ptr @g_cg_name, i64 0, i64 %206
  %208 = load ptr, ptr %207, align 8
  %209 = call i32 (ptr, ...) @error(ptr noundef @.str.33, i32 noundef %204, ptr noundef %208)
  store i32 -1, ptr %8, align 4
  br label %230

210:                                              ; preds = %191
  %211 = load ptr, ptr %7, align 8
  %212 = getelementptr inbounds nuw %struct.cgroup_limits_t, ptr %211, i32 0, i32 6
  %213 = load i8, ptr %212, align 8, !range !12, !noundef !13
  %214 = trunc i8 %213 to i1
  br i1 %214, label %215, label %220

215:                                              ; preds = %210
  %216 = load ptr, ptr %9, align 8
  %217 = getelementptr inbounds nuw %struct.task_cg_info_t, ptr %216, i32 0, i32 0
  %218 = load ptr, ptr %10, align 8
  %219 = call i32 @common_cgroup_set_param(ptr noundef %217, ptr noundef @.str.31, ptr noundef %218)
  store i32 %219, ptr %8, align 4
  br label %225

220:                                              ; preds = %210
  %221 = load ptr, ptr %9, align 8
  %222 = getelementptr inbounds nuw %struct.task_cg_info_t, ptr %221, i32 0, i32 0
  %223 = load ptr, ptr %10, align 8
  %224 = call i32 @common_cgroup_set_param(ptr noundef %222, ptr noundef @.str.32, ptr noundef %223)
  store i32 %224, ptr %8, align 4
  br label %225

225:                                              ; preds = %220, %215
  br label %226

226:                                              ; preds = %225, %188
  br label %230

227:                                              ; preds = %15
  %228 = load i32, ptr %5, align 4
  %229 = call i32 (ptr, ...) @error(ptr noundef @.str.9, i32 noundef %228)
  store i32 -1, ptr %8, align 4
  br label %230

230:                                              ; preds = %227, %226, %201, %148, %66, %15
  call void @slurm_xfree(ptr noundef %10)
  %231 = load i32, ptr %8, align 4
  store i32 %231, ptr %4, align 4
  store i32 1, ptr %11, align 4
  br label %232

232:                                              ; preds = %230, %14
  call void @llvm.lifetime.end.p0(i64 8, ptr %10) #7
  call void @llvm.lifetime.end.p0(i64 8, ptr %9) #7
  call void @llvm.lifetime.end.p0(i64 4, ptr %8) #7
  %233 = load i32, ptr %4, align 4
  ret i32 %233
}